target datalayout = "e-m:e-p270:32:32-p271:32:32-p272:64:64-i64:64-i128:128-f80:128-n8:16:32:64-S128"
target triple = "x86_64-pc-linux-gnu"

%struct.Aig_VSig_t_ = type { i32, [12 x i32] }

; Function Attrs: inlinehint nounwind uwtable
define internal i32 @Kit_WordCountOnes(i32 noundef %0) #5 {
  %2 = alloca i32, align 4
  store i32 %0, ptr %2, align 4, !tbaa !25
  %3 = load i32, ptr %2, align 4, !tbaa !25
  %4 = and i32 %3, 1431655765
  %5 = load i32, ptr %2, align 4, !tbaa !25
  %6 = lshr i32 %5, 1
  %7 = and i32 %6, 1431655765
  %8 = add i32 %4, %7
  store i32 %8, ptr %2, align 4, !tbaa !25
  %9 = load i32, ptr %2, align 4, !tbaa !25
  %10 = and i32 %9, 858993459
  %11 = load i32, ptr %2, align 4, !tbaa !25
  %12 = lshr i32 %11, 2
  %13 = and i32 %12, 858993459
  %14 = add i32 %10, %13
  store i32 %14, ptr %2, align 4, !tbaa !25
  %15 = load i32, ptr %2, align 4, !tbaa !25
  %16 = and i32 %15, 252645135
  %17 = load i32, ptr %2, align 4, !tbaa !25
  %18 = lshr i32 %17, 4
  %19 = and i32 %18, 252645135
  %20 = add i32 %16, %19
  store i32 %20, ptr %2, align 4, !tbaa !25
  %21 = load i32, ptr %2, align 4, !tbaa !25
  %22 = and i32 %21, 16711935
  %23 = load i32, ptr %2, align 4, !tbaa !25
  %24 = lshr i32 %23, 8
  %25 = and i32 %24, 16711935
  %26 = add i32 %22, %25
  store i32 %26, ptr %2, align 4, !tbaa !25
  %27 = load i32, ptr %2, align 4, !tbaa !25
  %28 = and i32 %27, 65535
  %29 = load i32, ptr %2, align 4, !tbaa !25
  %30 = lshr i32 %29, 16
  %31 = add i32 %28, %30
  ret i32 %31
}

; Function Attrs: inlinehint nounwind uwtable
define internal i32 @Kit_TruthWordNum(i32 noundef %0) #5 {
  %2 = alloca i32, align 4
  store i32 %0, ptr %2, align 4, !tbaa !25
  %3 = load i32, ptr %2, align 4, !tbaa !25
  %4 = icmp sle i32 %3, 5
  br i1 %4, label %5, label %6

5:                                                ; preds = %1
  br label %10

6:                                                ; preds = %1
  %7 = load i32, ptr %2, align 4, !tbaa !25
  %8 = sub nsw i32 %7, 5
  %9 = shl i32 1, %8
  br label %10

10:                                               ; preds = %6, %5
  %11 = phi i32 [ 1, %5 ], [ %9, %6 ]
  ret i32 %11
}

; Function Attrs: nounwind uwtable
define void @Aig_RManSortNums(ptr noundef %0, i32 noundef %1) #0 {
  %3 = alloca ptr, align 8
  %4 = alloca i32, align 4
  %5 = alloca i32, align 4
  %6 = alloca i32, align 4
  %7 = alloca i32, align 4
  %8 = alloca i32, align 4
  store ptr %0, ptr %3, align 8, !tbaa !29
  store i32 %1, ptr %4, align 4, !tbaa !25
  call void @llvm.lifetime.start.p0(i64 4, ptr %5) #10
  call void @llvm.lifetime.start.p0(i64 4, ptr %6) #10
  call void @llvm.lifetime.start.p0(i64 4, ptr %7) #10
  call void @llvm.lifetime.start.p0(i64 4, ptr %8) #10
  store i32 0, ptr %5, align 4, !tbaa !25
  br label %9

9:                                                ; preds = %60, %2
  %10 = load i32, ptr %5, align 4, !tbaa !25
  %11 = load i32, ptr %4, align 4, !tbaa !25
  %12 = sub nsw i32 %11, 1
  %13 = icmp slt i32 %10, %12
  br i1 %13, label %14, label %63

14:                                               ; preds = %9
  %15 = load i32, ptr %5, align 4, !tbaa !25
  store i32 %15, ptr %7, align 4, !tbaa !25
  %16 = load i32, ptr %5, align 4, !tbaa !25
  %17 = add nsw i32 %16, 1
  store i32 %17, ptr %6, align 4, !tbaa !25
  br label %18

18:                                               ; preds = %37, %14
  %19 = load i32, ptr %6, align 4, !tbaa !25
  %20 = load i32, ptr %4, align 4, !tbaa !25
  %21 = icmp slt i32 %19, %20
  br i1 %21, label %22, label %40

22:                                               ; preds = %18
  %23 = load ptr, ptr %3, align 8, !tbaa !29
  %24 = load i32, ptr %6, align 4, !tbaa !25
  %25 = sext i32 %24 to i64
  %26 = getelementptr inbounds i32, ptr %23, i64 %25
  %27 = load i32, ptr %26, align 4, !tbaa !25
  %28 = load ptr, ptr %3, align 8, !tbaa !29
  %29 = load i32, ptr %7, align 4, !tbaa !25
  %30 = sext i32 %29 to i64
  %31 = getelementptr inbounds i32, ptr %28, i64 %30
  %32 = load i32, ptr %31, align 4, !tbaa !25
  %33 = icmp sgt i32 %27, %32
  br i1 %33, label %34, label %36

34:                                               ; preds = %22
  %35 = load i32, ptr %6, align 4, !tbaa !25
  store i32 %35, ptr %7, align 4, !tbaa !25
  br label %36

36:                                               ; preds = %34, %22
  br label %37

37:                                               ; preds = %36
  %38 = load i32, ptr %6, align 4, !tbaa !25
  %39 = add nsw i32 %38, 1
  store i32 %39, ptr %6, align 4, !tbaa !25
  br label %18, !llvm.loop !52

40:                                               ; preds = %18
  %41 = load ptr, ptr %3, align 8, !tbaa !29
  %42 = load i32, ptr %5, align 4, !tbaa !25
  %43 = sext i32 %42 to i64
  %44 = getelementptr inbounds i32, ptr %41, i64 %43
  %45 = load i32, ptr %44, align 4, !tbaa !25
  store i32 %45, ptr %8, align 4, !tbaa !25
  %46 = load ptr, ptr %3, align 8, !tbaa !29
  %47 = load i32, ptr %7, align 4, !tbaa !25
  %48 = sext i32 %47 to i64
  %49 = getelementptr inbounds i32, ptr %46, i64 %48
  %50 = load i32, ptr %49, align 4, !tbaa !25
  %51 = load ptr, ptr %3, align 8, !tbaa !29
  %52 = load i32, ptr %5, align 4, !tbaa !25
  %53 = sext i32 %52 to i64
  %54 = getelementptr inbounds i32, ptr %51, i64 %53
  store i32 %50, ptr %54, align 4, !tbaa !25
  %55 = load i32, ptr %8, align 4, !tbaa !25
  %56 = load ptr, ptr %3, align 8, !tbaa !29
  %57 = load i32, ptr %7, align 4, !tbaa !25
  %58 = sext i32 %57 to i64
  %59 = getelementptr inbounds i32, ptr %56, i64 %58
  store i32 %55, ptr %59, align 4, !tbaa !25
  br label %60

60:                                               ; preds = %40
  %61 = load i32, ptr %5, align 4, !tbaa !25
  %62 = add nsw i32 %61, 1
  store i32 %62, ptr %5, align 4, !tbaa !25
  br label %9, !llvm.loop !53

63:                                               ; preds = %9
  call void @llvm.lifetime.end.p0(i64 4, ptr %8) #10
  call void @llvm.lifetime.end.p0(i64 4, ptr %7) #10
  call void @llvm.lifetime.end.p0(i64 4, ptr %6) #10
  call void @llvm.lifetime.end.p0(i64 4, ptr %5) #10
  ret void
}

; Function Attrs: inlinehint nounwind uwtable
define internal i32 @Kit_TruthCountOnes(ptr noundef %0, i32 noundef %1) #5 {
  %3 = alloca ptr, align 8
  %4 = alloca i32, align 4
  %5 = alloca i32, align 4
  %6 = alloca i32, align 4
  store ptr %0, ptr %3, align 8, !tbaa !29
  store i32 %1, ptr %4, align 4, !tbaa !25
  call void @llvm.lifetime.start.p0(i64 4, ptr %5) #10
  call void @llvm.lifetime.start.p0(i64 4, ptr %6) #10
  store i32 0, ptr %6, align 4, !tbaa !25
  %7 = load i32, ptr %4, align 4, !tbaa !25
  %8 = call i32 @Kit_TruthWordNum(i32 noundef %7)
  %9 = sub nsw i32 %8, 1
  store i32 %9, ptr %5, align 4, !tbaa !25
  br label %10

10:                                               ; preds = %22, %2
  %11 = load i32, ptr %5, align 4, !tbaa !25
  %12 = icmp sge i32 %11, 0
  br i1 %12, label %13, label %25

13:                                               ; preds = %10
  %14 = load ptr, ptr %3, align 8, !tbaa !29
  %15 = load i32, ptr %5, align 4, !tbaa !25
  %16 = sext i32 %15 to i64
  %17 = getelementptr inbounds i32, ptr %14, i64 %16
  %18 = load i32, ptr %17, align 4, !tbaa !25
  %19 = call i32 @Kit_WordCountOnes(i32 noundef %18)
  %20 = load i32, ptr %6, align 4, !tbaa !25
  %21 = add nsw i32 %20, %19
  store i32 %21, ptr %6, align 4, !tbaa !25
  br label %22

22:                                               ; preds = %13
  %23 = load i32, ptr %5, align 4, !tbaa !25
  %24 = add nsw i32 %23, -1
  store i32 %24, ptr %5, align 4, !tbaa !25
  br label %10, !llvm.loop !62

25:                                               ; preds = %10
  %26 = load i32, ptr %6, align 4, !tbaa !25
  call void @llvm.lifetime.end.p0(i64 4, ptr %6) #10
  call void @llvm.lifetime.end.p0(i64 4, ptr %5) #10
  ret i32 %26
}

; Function Attrs: nounwind uwtable
define void @Aig_RManComputeVSigs(ptr noundef %0, i32 noundef %1, ptr noundef %2, ptr noundef %3) #0 {
  %5 = alloca ptr, align 8
  %6 = alloca i32, align 4
  %7 = alloca ptr, align 8
  %8 = alloca ptr, align 8
  %9 = alloca i32, align 4
  store ptr %0, ptr %5, align 8, !tbaa !29
  store i32 %1, ptr %6, align 4, !tbaa !25
  store ptr %2, ptr %7, align 8, !tbaa !54
  store ptr %3, ptr %8, align 8, !tbaa !29
  call void @llvm.lifetime.start.p0(i64 4, ptr %9) #10
  store i32 0, ptr %9, align 4, !tbaa !25
  br label %10

10:                                               ; preds = %81, %4
  %11 = load i32, ptr %9, align 4, !tbaa !25
  %12 = load i32, ptr %6, align 4, !tbaa !25
  %13 = icmp slt i32 %11, %12
  br i1 %13, label %14, label %84

14:                                               ; preds = %10
  %15 = load ptr, ptr %8, align 8, !tbaa !29
  %16 = load ptr, ptr %5, align 8, !tbaa !29
  %17 = load i32, ptr %6, align 4, !tbaa !25
  %18 = load i32, ptr %9, align 4, !tbaa !25
  call void @Kit_TruthCofactor0New(ptr noundef %15, ptr noundef %16, i32 noundef %17, i32 noundef %18)
  %19 = load ptr, ptr %8, align 8, !tbaa !29
  %20 = load i32, ptr %6, align 4, !tbaa !25
  %21 = call i32 @Kit_TruthCountOnes(ptr noundef %19, i32 noundef %20)
  %22 = load ptr, ptr %7, align 8, !tbaa !54
  %23 = load i32, ptr %9, align 4, !tbaa !25
  %24 = mul nsw i32 2, %23
  %25 = add nsw i32 %24, 0
  %26 = sext i32 %25 to i64
  %27 = getelementptr inbounds %struct.Aig_VSig_t_, ptr %22, i64 %26
  %28 = getelementptr inbounds nuw %struct.Aig_VSig_t_, ptr %27, i32 0, i32 0
  store i32 %21, ptr %28, align 4, !tbaa !56
  %29 = load ptr, ptr %8, align 8, !tbaa !29
  %30 = load i32, ptr %6, align 4, !tbaa !25
  %31 = load ptr, ptr %7, align 8, !tbaa !54
  %32 = load i32, ptr %9, align 4, !tbaa !25
  %33 = mul nsw i32 2, %32
  %34 = add nsw i32 %33, 0
  %35 = sext i32 %34 to i64
  %36 = getelementptr inbounds %struct.Aig_VSig_t_, ptr %31, i64 %35
  %37 = getelementptr inbounds nuw %struct.Aig_VSig_t_, ptr %36, i32 0, i32 1
  %38 = getelementptr inbounds [12 x i32], ptr %37, i64 0, i64 0
  call void @Kit_TruthCountOnesInCofs0(ptr noundef %29, i32 noundef %30, ptr noundef %38)
  %39 = load ptr, ptr %7, align 8, !tbaa !54
  %40 = load i32, ptr %9, align 4, !tbaa !25
  %41 = mul nsw i32 2, %40
  %42 = add nsw i32 %41, 0
  %43 = sext i32 %42 to i64
  %44 = getelementptr inbounds %struct.Aig_VSig_t_, ptr %39, i64 %43
  %45 = getelementptr inbounds nuw %struct.Aig_VSig_t_, ptr %44, i32 0, i32 1
  %46 = getelementptr inbounds [12 x i32], ptr %45, i64 0, i64 0
  %47 = load i32, ptr %6, align 4, !tbaa !25
  call void @Aig_RManSortNums(ptr noundef %46, i32 noundef %47)
  %48 = load ptr, ptr %8, align 8, !tbaa !29
  %49 = load ptr, ptr %5, align 8, !tbaa !29
  %50 = load i32, ptr %6, align 4, !tbaa !25
  %51 = load i32, ptr %9, align 4, !tbaa !25
  call void @Kit_TruthCofactor1New(ptr noundef %48, ptr noundef %49, i32 noundef %50, i32 noundef %51)
  %52 = load ptr, ptr %8, align 8, !tbaa !29
  %53 = load i32, ptr %6, align 4, !tbaa !25
  %54 = call i32 @Kit_TruthCountOnes(ptr noundef %52, i32 noundef %53)
  %55 = load ptr, ptr %7, align 8, !tbaa !54
  %56 = load i32, ptr %9, align 4, !tbaa !25
  %57 = mul nsw i32 2, %56
  %58 = add nsw i32 %57, 1
  %59 = sext i32 %58 to i64
  %60 = getelementptr inbounds %struct.Aig_VSig_t_, ptr %55, i64 %59
  %61 = getelementptr inbounds nuw %struct.Aig_VSig_t_, ptr %60, i32 0, i32 0
  store i32 %54, ptr %61, align 4, !tbaa !56
  %62 = load ptr, ptr %8, align 8, !tbaa !29
  %63 = load i32, ptr %6, align 4, !tbaa !25
  %64 = load ptr, ptr %7, align 8, !tbaa !54
  %65 = load i32, ptr %9, align 4, !tbaa !25
  %66 = mul nsw i32 2, %65
  %67 = add nsw i32 %66, 1
  %68 = sext i32 %67 to i64
  %69 = getelementptr inbounds %struct.Aig_VSig_t_, ptr %64, i64 %68
  %70 = getelementptr inbounds nuw %struct.Aig_VSig_t_, ptr %69, i32 0, i32 1
  %71 = getelementptr inbounds [12 x i32], ptr %70, i64 0, i64 0
  call void @Kit_TruthCountOnesInCofs0(ptr noundef %62, i32 noundef %63, ptr noundef %71)
  %72 = load ptr, ptr %7, align 8, !tbaa !54
  %73 = load i32, ptr %9, align 4, !tbaa !25
  %74 = mul nsw i32 2, %73
  %75 = add nsw i32 %74, 1
  %76 = sext i32 %75 to i64
  %77 = getelementptr inbounds %struct.Aig_VSig_t_, ptr %72, i64 %76
  %78 = getelementptr inbounds nuw %struct.Aig_VSig_t_, ptr %77, i32 0, i32 1
  %79 = getelementptr inbounds [12 x i32], ptr %78, i64 0, i64 0
  %80 = load i32, ptr %6, align 4, !tbaa !25
  call void @Aig_RManSortNums(ptr noundef %79, i32 noundef %80)
  br label %81

81:                                               ; preds = %14
  %82 = load i32, ptr %9, align 4, !tbaa !25
  %83 = add nsw i32 %82, 1
  store i32 %83, ptr %9, align 4, !tbaa !25
  br label %10, !llvm.loop !61

84:                                               ; preds = %10
  call void @llvm.lifetime.end.p0(i64 4, ptr %9) #10
  ret void
}