; Function Attrs: nounwind uwtable
define void @Aig_RManComputeVSigs(ptr noundef %0, i32 noundef %1, ptr noundef %2, ptr noundef %3) local_unnamed_addr #0 {
  %5 = icmp sgt i32 %1, 0
  br i1 %5, label %.lr.ph, label %._crit_edge

.lr.ph:                                           ; preds = %4
  %6 = icmp samesign ult i32 %1, 6
  %7 = add nsw i32 %1, -5
  %8 = shl nuw i32 1, %7
  %spec.select.i = select i1 %6, i32 1, i32 %8
  %9 = icmp sgt i32 %spec.select.i, 0
  %10 = zext nneg i32 %spec.select.i to i64
  %.not = icmp eq i32 %1, 1
  %11 = add nsw i32 %1, -1
  %wide.trip.count35.i = zext nneg i32 %11 to i64
  %wide.trip.count.i = zext nneg i32 %1 to i64
  br label %12

12:                                               ; preds = %.lr.ph, %Aig_RManSortNums.exit60
  %indvars.iv = phi i64 [ 0, %.lr.ph ], [ %indvars.iv.next, %Aig_RManSortNums.exit60 ]
  %13 = trunc nuw nsw i64 %indvars.iv to i32
  tail call void @Kit_TruthCofactor0New(ptr noundef %3, ptr noundef %0, i32 noundef %1, i32 noundef %13) #16
  br i1 %9, label %select.unfold.i, label %Kit_TruthCountOnes.exit

select.unfold.i:                                  ; preds = %12, %select.unfold.i
  %indvars.iv.i = phi i64 [ %indvars.iv.next.i, %select.unfold.i ], [ %10, %12 ]
  %.08.i = phi i32 [ %35, %select.unfold.i ], [ 0, %12 ]
  %indvars.iv.next.i = add nsw i64 %indvars.iv.i, -1
  %14 = getelementptr inbounds nuw i32, ptr %3, i64 %indvars.iv.next.i
  %15 = load i32, ptr %14, align 4, !tbaa !24
  %16 = and i32 %15, 1431655765
  %17 = lshr i32 %15, 1
  %18 = and i32 %17, 1431655765
  %19 = add nuw i32 %18, %16
  %20 = and i32 %19, 858993459
  %21 = lshr i32 %19, 2
  %22 = and i32 %21, 858993459
  %23 = add nuw nsw i32 %22, %20
  %24 = and i32 %23, 117901063
  %25 = lshr i32 %23, 4
  %26 = and i32 %25, 117901063
  %27 = add nuw nsw i32 %26, %24
  %28 = and i32 %27, 983055
  %29 = lshr i32 %27, 8
  %30 = and i32 %29, 983055
  %31 = add nuw nsw i32 %30, %28
  %32 = and i32 %31, 31
  %33 = lshr i32 %31, 16
  %34 = add nuw nsw i32 %33, %.08.i
  %35 = add nuw nsw i32 %34, %32
  %36 = icmp samesign ugt i64 %indvars.iv.i, 1
  br i1 %36, label %select.unfold.i, label %Kit_TruthCountOnes.exit, !llvm.loop !52

Kit_TruthCountOnes.exit:                          ; preds = %select.unfold.i, %12
  %.0.lcssa.i = phi i32 [ 0, %12 ], [ %35, %select.unfold.i ]
  %37 = shl nuw nsw i64 %indvars.iv, 1
  %38 = getelementptr inbounds nuw %struct.Aig_VSig_t_, ptr %2, i64 %37
  store i32 %.0.lcssa.i, ptr %38, align 4, !tbaa !47
  %39 = getelementptr inbounds nuw i8, ptr %38, i64 4
  tail call void @Kit_TruthCountOnesInCofs0(ptr noundef %3, i32 noundef %1, ptr noundef nonnull %39) #16
  br i1 %.not, label %Aig_RManSortNums.exit, label %.lr.ph.preheader.i

.lr.ph.preheader.i:                               ; preds = %Kit_TruthCountOnes.exit, %._crit_edge.i
  %indvars.iv32.i = phi i64 [ %indvars.iv.next33.i, %._crit_edge.i ], [ 0, %Kit_TruthCountOnes.exit ]
  %indvars.iv.i33 = phi i64 [ %indvars.iv.next.i35, %._crit_edge.i ], [ 1, %Kit_TruthCountOnes.exit ]
  %40 = trunc nuw nsw i64 %indvars.iv32.i to i32
  br label %.lr.ph.i

.lr.ph.i:                                         ; preds = %.lr.ph.i, %.lr.ph.preheader.i
  %indvars.iv29.i = phi i64 [ %indvars.iv.i33, %.lr.ph.preheader.i ], [ %indvars.iv.next30.i, %.lr.ph.i ]
  %.02124.i = phi i32 [ %40, %.lr.ph.preheader.i ], [ %spec.select.i34, %.lr.ph.i ]
  %41 = getelementptr inbounds nuw i32, ptr %39, i64 %indvars.iv29.i
  %42 = load i32, ptr %41, align 4, !tbaa !24
  %43 = sext i32 %.02124.i to i64
  %44 = getelementptr inbounds i32, ptr %39, i64 %43
  %45 = load i32, ptr %44, align 4, !tbaa !24
  %46 = icmp sgt i32 %42, %45
  %47 = trunc nuw nsw i64 %indvars.iv29.i to i32
  %spec.select.i34 = select i1 %46, i32 %47, i32 %.02124.i
  %indvars.iv.next30.i = add nuw nsw i64 %indvars.iv29.i, 1
  %exitcond.not.i = icmp eq i64 %indvars.iv.next30.i, %wide.trip.count.i
  br i1 %exitcond.not.i, label %._crit_edge.i, label %.lr.ph.i, !llvm.loop !45

._crit_edge.i:                                    ; preds = %.lr.ph.i
  %indvars.iv.next33.i = add nuw nsw i64 %indvars.iv32.i, 1
  %48 = getelementptr inbounds nuw i32, ptr %39, i64 %indvars.iv32.i
  %49 = load i32, ptr %48, align 4, !tbaa !24
  %50 = sext i32 %spec.select.i34 to i64
  %51 = getelementptr inbounds i32, ptr %39, i64 %50
  %52 = load i32, ptr %51, align 4, !tbaa !24
  store i32 %52, ptr %48, align 4, !tbaa !24
  store i32 %49, ptr %51, align 4, !tbaa !24
  %indvars.iv.next.i35 = add nuw nsw i64 %indvars.iv.i33, 1
  %exitcond36.not.i = icmp eq i64 %indvars.iv.next33.i, %wide.trip.count35.i
  br i1 %exitcond36.not.i, label %Aig_RManSortNums.exit, label %.lr.ph.preheader.i, !llvm.loop !46

Aig_RManSortNums.exit:                            ; preds = %._crit_edge.i, %Kit_TruthCountOnes.exit
  tail call void @Kit_TruthCofactor1New(ptr noundef %3, ptr noundef %0, i32 noundef %1, i32 noundef %13) #16
  br i1 %9, label %select.unfold.i39, label %Kit_TruthCountOnes.exit43

select.unfold.i39:                                ; preds = %Aig_RManSortNums.exit, %select.unfold.i39
  %indvars.iv.i40 = phi i64 [ %indvars.iv.next.i42, %select.unfold.i39 ], [ %10, %Aig_RManSortNums.exit ]
  %.08.i41 = phi i32 [ %74, %select.unfold.i39 ], [ 0, %Aig_RManSortNums.exit ]
  %indvars.iv.next.i42 = add nsw i64 %indvars.iv.i40, -1
  %53 = getelementptr inbounds nuw i32, ptr %3, i64 %indvars.iv.next.i42
  %54 = load i32, ptr %53, align 4, !tbaa !24
  %55 = and i32 %54, 1431655765
  %56 = lshr i32 %54, 1
  %57 = and i32 %56, 1431655765
  %58 = add nuw i32 %57, %55
  %59 = and i32 %58, 858993459
  %60 = lshr i32 %58, 2
  %61 = and i32 %60, 858993459
  %62 = add nuw nsw i32 %61, %59
  %63 = and i32 %62, 117901063
  %64 = lshr i32 %62, 4
  %65 = and i32 %64, 117901063
  %66 = add nuw nsw i32 %65, %63
  %67 = and i32 %66, 983055
  %68 = lshr i32 %66, 8
  %69 = and i32 %68, 983055
  %70 = add nuw nsw i32 %69, %67
  %71 = and i32 %70, 31
  %72 = lshr i32 %70, 16
  %73 = add nuw nsw i32 %72, %.08.i41
  %74 = add nuw nsw i32 %73, %71
  %75 = icmp samesign ugt i64 %indvars.iv.i40, 1
  br i1 %75, label %select.unfold.i39, label %Kit_TruthCountOnes.exit43, !llvm.loop !52

Kit_TruthCountOnes.exit43:                        ; preds = %select.unfold.i39, %Aig_RManSortNums.exit
  %.0.lcssa.i37 = phi i32 [ 0, %Aig_RManSortNums.exit ], [ %74, %select.unfold.i39 ]
  %76 = or disjoint i64 %37, 1
  %77 = getelementptr inbounds nuw %struct.Aig_VSig_t_, ptr %2, i64 %76
  store i32 %.0.lcssa.i37, ptr %77, align 4, !tbaa !47
  %78 = getelementptr inbounds nuw i8, ptr %77, i64 4
  tail call void @Kit_TruthCountOnesInCofs0(ptr noundef %3, i32 noundef %1, ptr noundef nonnull %78) #16
  br i1 %.not, label %Aig_RManSortNums.exit60, label %.lr.ph.preheader.i47

.lr.ph.preheader.i47:                             ; preds = %Kit_TruthCountOnes.exit43, %._crit_edge.i57
  %indvars.iv32.i48 = phi i64 [ %indvars.iv.next33.i50, %._crit_edge.i57 ], [ 0, %Kit_TruthCountOnes.exit43 ]
  %indvars.iv.i49 = phi i64 [ %indvars.iv.next.i58, %._crit_edge.i57 ], [ 1, %Kit_TruthCountOnes.exit43 ]
  %79 = trunc nuw nsw i64 %indvars.iv32.i48 to i32
  br label %.lr.ph.i51

.lr.ph.i51:                                       ; preds = %.lr.ph.i51, %.lr.ph.preheader.i47
  %indvars.iv29.i52 = phi i64 [ %indvars.iv.i49, %.lr.ph.preheader.i47 ], [ %indvars.iv.next30.i55, %.lr.ph.i51 ]
  %.02124.i53 = phi i32 [ %79, %.lr.ph.preheader.i47 ], [ %spec.select.i54, %.lr.ph.i51 ]
  %80 = getelementptr inbounds nuw i32, ptr %78, i64 %indvars.iv29.i52
  %81 = load i32, ptr %80, align 4, !tbaa !24
  %82 = sext i32 %.02124.i53 to i64
  %83 = getelementptr inbounds i32, ptr %78, i64 %82
  %84 = load i32, ptr %83, align 4, !tbaa !24
  %85 = icmp sgt i32 %81, %84
  %86 = trunc nuw nsw i64 %indvars.iv29.i52 to i32
  %spec.select.i54 = select i1 %85, i32 %86, i32 %.02124.i53
  %indvars.iv.next30.i55 = add nuw nsw i64 %indvars.iv29.i52, 1
  %exitcond.not.i56 = icmp eq i64 %indvars.iv.next30.i55, %wide.trip.count.i
  br i1 %exitcond.not.i56, label %._crit_edge.i57, label %.lr.ph.i51, !llvm.loop !45

._crit_edge.i57:                                  ; preds = %.lr.ph.i51
  %indvars.iv.next33.i50 = add nuw nsw i64 %indvars.iv32.i48, 1
  %87 = getelementptr inbounds nuw i32, ptr %78, i64 %indvars.iv32.i48
  %88 = load i32, ptr %87, align 4, !tbaa !24
  %89 = sext i32 %spec.select.i54 to i64
  %90 = getelementptr inbounds i32, ptr %78, i64 %89
  %91 = load i32, ptr %90, align 4, !tbaa !24
  store i32 %91, ptr %87, align 4, !tbaa !24
  store i32 %88, ptr %90, align 4, !tbaa !24
  %indvars.iv.next.i58 = add nuw nsw i64 %indvars.iv.i49, 1
  %exitcond36.not.i59 = icmp eq i64 %indvars.iv.next33.i50, %wide.trip.count35.i
  br i1 %exitcond36.not.i59, label %Aig_RManSortNums.exit60, label %.lr.ph.preheader.i47, !llvm.loop !46

Aig_RManSortNums.exit60:                          ; preds = %._crit_edge.i57, %Kit_TruthCountOnes.exit43
  %indvars.iv.next = add nuw nsw i64 %indvars.iv, 1
  %exitcond.not = icmp eq i64 %indvars.iv.next, %wide.trip.count.i
  br i1 %exitcond.not, label %._crit_edge, label %12, !llvm.loop !53

._crit_edge:                                      ; preds = %Aig_RManSortNums.exit60, %4
  ret void
}